(dp1
I0
I1
sI1
I2
sI2
I3
sI3
I4
sI4
I5
sI5
I6
sI6
I7
sI7
I8
sI8
I9
sI9
I10
sI10
I11
sI11
I12
sI12
I13
sI13
I14
sI14
I21
sI15
I22
sI16
I23
sI17
I24
sI18
I25
sI19
I26
sI20
I27
sI21
I28
sI22
I29
sI23
I30
sI24
I31
sI25
I32
sI26
I33
sI27
I34
sI28
I35
sI29
I36
sI30
I37
sI31
I38
sI32
I39
sI33
I40
sI34
I41
sI35
I42
sI36
I43
sI37
I44
sI38
I51
sI39
I52
sI40
I53
sI41
I54
sI42
I55
sI43
I56
sI44
I57
sI45
I58
sI46
I59
sI47
I60
sI48
I61
sI49
I62
sI50
I63
sI51
I64
sI52
I65
sI53
I66
sI54
I67
sI55
I68
sI56
I69
sI57
I70
sI58
I71
sI59
I72
sI60
I81
sI61
I82
sI62
I83
sI63
I84
sI64
I85
sI65
I86
sI66
I87
sI67
I88
sI68
I89
sI69
I90
sI70
I91
sI71
I92
sI72
I93
sI73
I94
sI74
I95
sI75
I96
sI76
I97
sI77
I98
sI78
I99
sI79
I100
sI80
I101
sI81
I102
sI82
I111
sI83
I112
sI84
I113
sI85
I114
sI86
I115
sI87
I116
sI88
I117
sI89
I118
sI90
I119
sI91
I120
sI92
I121
sI93
I131
sI94
I132
sI95
I133
sI96
I134
sI97
I135
sI98
I136
sI99
I137
sI100
I138
sI101
I139
sI102
I140
sI103
I141
sI104
I142
sI105
I151
sI106
I152
sI107
I153
sI108
I154
sI109
I155
sI110
I156
sI111
I157
sI112
I158
sI113
I159
sI114
I160
sI115
I161
sI116
I172
sI117
I173
sI118
I176
sI119
I177
sI120
I178
sI121
I180
sI122
I181
sI123
I182
sI124
I191
sI125
I192
sI126
I193
sI127
I194
sI128
I195
sI129
I196
sI130
I197
sI131
I198
sI132
I199
sI133
I200
sI134
I211
sI135
I213
sI136
I214
sI137
I215
sI138
I216
sI139
I217
sI140
I218
sI141
I219
sI142
I220
sI143
I221
sI144
I222
sI145
I223
sI146
I224
sI147
I225
sI148
I226
sI149
I227
sI150
I228
sI151
I230
sI152
I231
sI153
I241
sI154
I242
sI155
I243
sI156
I244
sI157
I245
sI158
I246
sI159
I247
sI160
I248
sI161
I249
sI162
I250
sI163
I251
sI164
I261
sI165
I296
sI166
I297
sI167
I298
sI168
I301
sI169
I302
sI170
I303
sI171
I304
sI172
I305
sI173
I306
sI174
I307
sI175
I309
sI176
I310
sI177
I311
sI178
I312
sI179
I321
sI180
I322
sI181
I323
sI182
I324
sI183
I325
sI184
I326
sI185
I329
sI186
I331
sI187
I332
sI188
I333
sI189
I334
sI190
I335
sI191
I336
sI192
I337
sI193
I338
sI194
I339
sI195
I340
sI196
I341
sI197
I342
sI198
I344
sI199
I345
sI200
I351
sI201
I352
sI202
I353
sI203
I354
sI204
I355
sI205
I356
sI206
I357
sI207
I358
sI208
I359
sI209
I360
sI210
I361
sI211
I362
sI212
I363
sI213
I371
sI214
I372
sI215
I381
sI216
I382
sI217
I383
sI218
I385
sI219
I386
sI220
I387
sI221
I388
sI222
I389
sI223
I390
sI224
I391
sI225
I392
sI226
I393
sI227
I394
sI228
I401
sI229
I402
sI230
I403
sI231
I404
sI232
I405
sI233
I406
sI234
I407
sI235
I408
sI236
I409
sI237
I410
sI238
I411
sI239
I412
sI240
I413
sI241
I414
sI242
I415
sI243
I416
sI244
I417
sI245
I418
sI246
I419
sI247
I420
sI248
I421
sI249
I422
sI250
I423
sI251
I424
sI252
I431
sI253
I432
sI254
I433
sI255
I434
sI256
I435
sI257
I437
sI258
I438
sI259
I441
sI260
I442
sI261
I443
sI262
I444
sI263
I445
sI264
I446
sI265
I448
sI266
I449
sI267
I450
sI268
I491
sI269
I492
sI270
I493
sI271
I494
sI272
I495
sI273
I496
sI274
I497
sI275
I498
sI276
I499
sI277
I500
sI278
I501
sI279
I502
sI280
I533
sI281
I535
sI282
I536
sI283
I538
sI284
I540
sI285
I541
sI286
I543
sI287
I544
sI288
I546
sI289
I551
sI290
I552
sI291
I553
sI292
I554
sI293
I556
sI294
I557
sI295
I561
sI296
I562
sI297
I563
sI298
I564
sI299
I565
sI300
I566
sI301
I567
sI302
I571
sI303
I572
sI304
I573
sI305
I574
sI306
I575
sI307
I576
sI308
I577
sI309
I578
sI310
I579
sI311
I580
sI312
I581
sI313
I582
sI314
I584
sI315
I585
sI316
I586
sI317
I587
sI318
I588
sI319
I589
sI320
I590
sI321
I591
sI322
I592
sI323
I593
sI324
I594
sI325
I602
sI326
I603
sI327
I605
sI328
I606
sI329
I607
sI330
I608
sI331
I609
sI332
I610
sI333
I611
sI334
I612
sI335
I613
sI336
I614
sI337
I615
sI338
I616
sI339
I617
sI340
I619
sI341
I620
sI342
I622
sI343
I623
sI344
I624
sI345
I625
sI346
I626
sI347
I627
sI348
I628
sI349
I629
sI350
I630
sI351
I632
sI352
I661
sI353
I662
sI354
I663
sI355
I664
sI356
I665
sI357
I666
sI358
I667
sI359
I668
sI360
I669
sI361
I670
sI362
I671
sI363
I681
sI364
I683
sI365
I687
sI366
I690
sI367
I691
sI368
I692
sI369
I694
sI370
I696
sI371
I700
sI372
I701
sI373
I703
sI374
I704
sI375
I706
sI376
I707
sI377
I708
sI378
I709
sI379
I711
sI380
I713
sI381
I715
sI382
I716
sI383
I717
sI384
I723
sI385
I724
sI386
I726
sI387
I731
sI388
I732
sI389
I733
sI390
I734
sI391
I735
sI392
I736
sI393
I737
sI394
I738
sI395
I739
sI396
I740
sI397
I741
sI398
I742
sI399
I743
sI400
I744
sI401
I745
sI402
I746
sI403
I747
sI404
I748
sI405
I749
sI406
I750
sI407
I751
sI408
I754
sI409
I755
sI410
I756
sI411
I761
sI412
I762
sI413
I763
sI414
I766
sI415
I767
sI416
I768
sI417
I769
sI418
I770
sI419
I782
sI420
I783
sI421
I784
sI422
I785
sI423
I786
sI424
I791
sI425
I792
sI426
I793
sI427
I794
sI428
I841
sI429
I842
sI430
I843
sI431
I852
sI432
I853
sI433
I855
sI434
I861
sI435
I863
sI436
I865
sI437
I866
sI438
I867
sI439
I868
sI440
I869
sI441
I870
sI442
I872
sI443
I873
sI444
I874
sI445
I875
sI446
I876
sI447
I877
sI448
I878
sI449
I879
sI450
I880
sI451
I881
sI452
I883
sI453
I884
sI454
I885
sI455
I886
sI456
I888
sI457
I901
sI458
I902
sI459
I903
sI460
I904
sI461
I905
sI462
I906
sI463
I907
sI464
I908
sI465
I909
sI466
I921
sI467
I922
sI468
I923
sI469
I924
sI470
I925
sI471
I927
sI472
I928
sI473
I929
sI474
I931
sI475
I932
sI476
I934
sI477
I935
sI478
I936
sI479
I937
sI480
I938
sI481
I939
sI482
I940
sI483
I941
sI484
I942
sI485
I943
sI486
I944
sI487
I945
sI488
I946
sI489
I947
sI490
I948
sI491
I951
sI492
I952
sI493
I953
sI494
I954
sI495
I955
sI496
I956
sI497
I957
sI498
I958
sI499
I959
sI500
I960
sI501
I971
sI502
I972
sI503
I973
sI504
I975
sI505
I976
sI506
I977
sI507
I979
sI508
I980
sI509
I981
sI510
I982
sI511
I983
sI512
I985
sI513
I987
sI514
I988
sI515
I989
sI516
I990
sI517
I991
sI518
I992
sI519
I993
sI520
I995
sI521
I996
sI522
I1001
sI523
I1002
sI524
I1004
sI525
I1005
sI526
I1007
sI527
I1008
sI528
I1009
sI529
I1010
sI530
I1021
sI531
I1022
sI532
I1023
sI533
I1024
sI534
I1025
sI535
I1026
sI536
I1030
sI537
I1031
sI538
I1032
sI539
I1033
sI540
I1037
sI541
I1039
sI542
I1040
sI543
I1041
sI544
I1051
sI545
I1052
sI546
I1053
sI547
I1054
sI548
I1055
sI549
I1056
sI550
I1057
sI551
I1058
sI552
I1059
sI553
I1061
sI554
I1062
sI555
I1063
sI556
I1064
sI557
I1065
sI558
I1066
sI559
I1067
sI560
I1068
sI561
I1069
sI562
I1081
sI563
I1082
sI564
I1083
sI565
I1084
sI566
I1085
sI567
I1086
sI568
I1088
sI569
I1089
sI570
I1091
sI571
I1093
sI572
I1094
sI573
I1095
sI574
I1097
sI575
I1098
sI576
I1099
sI577
I1100
sI578
I1102
sI579
I1103
sI580
I1104
sI581
I1107
sI582
I1121
sI583
I1122
sI584
I1123
sI585
I1125
sI586
I1126
sI587
I1127
sI588
I1128
sI589
I1129
sI590
I1130
sI591
I1131
sI592
I1132
sI593
I1135
sI594
I1136
sI595
I1137
sI596
I1139
sI597
I1140
sI598
I1142
sI599
I1143
sI600
I1145
sI601
I1146
sI602
I1147
sI603
I1150
sI604
I1151
sI605
I1201
sI606
I1202
sI607
I1203
sI608
I1204
sI609
I1205
sI610
I1206
sI611
I1207
sI612
I1208
sI613
I1209
sI614
I1210
sI615
I1211
sI616
I1212
sI617
I1213
sI618
I1214
sI619
I1215
sI620
I1216
sI621
I1217
sI622
I1218
sI623
I1219
sI624
I1220
sI625
I1301
sI626
I1311
sI627
I1321
sI628
I1322
sI629
I1323
sI630
I1331
sI631
I1341
sI632
I1342
sI633
I1343
sI634
I1344
sI635
I1345
sI636
I1346
sI637
I1347
sI638
I1348
sI639
I1349
sI640
I1361
sI641
I1362
sI642
I1363
sI643
I1364
sI644
I1365
sI645
I1366
sI646
I1367
sI647
I1368
sI648
I1369
sI649
I1370
sI650
I1371
sI651
I1372
sI652
I1373
sI653
I1374
sI654
I1375
sI655
I1401
sI656
I1402
sI657
I1403
sI658
I1404
sI659
I1405
sI660
I1406
sI661
I1407
sI662
I1501
sI663
I1502
sI664
I1503
sI665
I1504
sI666
I1505
sI667
I1506
sI668
I1507
sI669
I1508
sI670
I1509
sI671
I1510
sI672
I1511
sI673
I1630
sI674
I1631
sI675
I1632
sI676
I1701
sI677
I1702
sI678
I1703
sI679
I1704
sI680
I1705
sI681
I1706
sI682
I1707
sI683
I1708
sI684
I1709
sI685
I1710
sI686
I1711
sI687
I2004
sI688
I2005
sI689
I2008
sI690
I2009
sI691
I2010
sI692
I2011
sI693
I2015
sI694
I2016
sI695
I2022
sI696
I2025
sI697
I2027
sI698
I2029
sI699
I2033
sI700
I2034
sI701
I2035
sI702
I2038
sI703
I2039
sI704
I2041
sI705
I2043
sI706
I2044
sI707
I2045
sI708
I2047
sI709
I2049
sI710
I2050
sI711
I2051
sI712
I2052
sI713
I2053
sI714
I2061
sI715
I2063
sI716
I2066
sI717
I2067
sI718
I2068
sI719
I2072
sI720
I2079
sI721
I2086
sI722
I2087
sI723
I2089
sI724
I2096
sI725
I2097
sI726
I2099
sI727
I2102
sI728
I2111
sI729
I2113
sI730
I2114
sI731
I2115
sI732
I2116
sI733
I2121
sI734
I2122
sI735
I2123
sI736
I2124
sI737
I2125
sI738
I2128
sI739
I2129
sI740
I2130
sI741
I2131
sI742
I2134
sI743
I2135
sI744
I2137
sI745
I2138
sI746
I2140
sI747
I2143
sI748
I2145
sI749
I2147
sI750
I2148
sI751
I2149
sI752
I2152
sI753
I2153
sI754
I2155
sI755
I2160
sI756
I2162
sI757
I2163
sI758
I2171
sI759
I2173
sI760
I2174
sI761
I2175
sI762
I2177
sI763
I2179
sI764
I2183
sI765
I2185
sI766
I2186
sI767
I2189
sI768
I2194
sI769
I2196
sI770
I2197
sI771
I2198
sI772
I2200
sI773
I2206
sI774
I2208
sI775
I2211
sI776
I2213
sI777
I2216
sI778
I2217
sI779
I2220
sI780
I2221
sI781
I2225
sI782
I2226
sI783
I2228
sI784
I2230
sI785
I2233
sI786
I2234
sI787
I2235
sI788
I2236
sI789
I2243
sI790
I2250
sI791
I2254
sI792
I2257
sI793
I2258
sI794
I2259
sI795
I2260
sI796
I2261
sI797
I2262
sI798
I2265
sI799
I2266
sI800
I2271
sI801
I2272
sI802
I2274
sI803
I2275
sI804
I2276
sI805
I2278
sI806
I2279
sI807
I2283
sI808
I2284
sI809
I2291
sI810
I2292
sI811
I2293
sI812
I2294
sI813
I2295
sI814
I2296
sI815
I2298
sI816
I2299
sI817
I2300
sI818
I2301
sI819
I2302
sI820
I2303
sI821
I2304
sI822
I2305
sI823
I2306
sI824
I2307
sI825
I2308
sI826
I2309
sI827
I2310
sI828
I2321
sI829
I2323
sI830
I2325
sI831
I2328
sI832
I2333
sI833
I2335
sI834
I2336
sI835
I2337
sI836
I2338
sI837
I2401
sI838
I2402
sI839
I2403
sI840
I2404
sI841
I2405
sI842
I2406
sI843
I2407
sI844
I2408
sI845
I2421
sI846
I2422
sI847
I2423
sI848
I2424
sI849
I2425
sI850
I2426
sI851
I2427
sI852
I2428
sI853
I2429
sI854
I2445
sI855
I2455
sI856
I2456
sI857
I2457
sI858
I2461
sI859
I2463
sI860
I2464
sI861
I2465
sI862
I2471
sI863
I2472
sI864
I2473
sI865
I2474
sI866
I2475
sI867
I2476
sI868
I2477
sI869
I2478
sI870
I2479
sI871
I2480
sI872
I2481
sI873
I2491
sI874
I2492
sI875
I2493
sI876
I2495
sI877
I2497
sI878
I2498
sI879
I2499
sI880
I2500
sI881
I2501
sI882
I2502
sI883
I2503
sI884
I2511
sI885
I2513
sI886
I2514
sI887
I2516
sI888
I2517
sI889
I2518
sI890
I2519
sI891
I2520
sI892
I2523
sI893
I2524
sI894
I2525
sI895
I2526
sI896
I2527
sI897
I2528
sI898
I2529
sI899
I2530
sI900
I2532
sI901
I2534
sI902
I2535
sI903
I2541
sI904
I2542
sI905
I2543
sI906
I2544
sI907
I2545
sI908
I2546
sI909
I2547
sI910
I2548
sI911
I2549
sI912
I2550
sI913
I2551
sI914
I2553
sI915
I2554
sI916
I2555
sI917
I2556
sI918
I2571
sI919
I2572
sI920
I2573
sI921
I2574
sI922
I2575
sI923
I2576
sI924
I2578
sI925
I2579
sI926
I2580
sI927
I2581
sI928
I2582
sI929
I2583
sI930
I2584
sI931
I2585
sI932
I2586
sI933
I2601
sI934
I2611
sI935
I2612
sI936
I2613
sI937
I2614
sI938
I2615
sI939
I2616
sI940
I2617
sI941
I2618
sI942
I2619
sI943
I2620
sI944
I2621
sI945
I2622
sI946
I2701
sI947
I2702
sI948
I2703
sI949
I2761
sI950
I2762
sI951
I2763
sI952
I2764
sI953
I2765
sI954
I2766
sI955
I2767
sI956
I2768
sI957
I2769
sI958
I2770
sI959
I2771
sI960
I2772
sI961
I2773
sI962
I2774
sI963
I2775
sI964
I2781
sI965
I2782
sI966
I2783
sI967
I2784
sI968
I2785
sI969
I2786
sI970
I2787
sI971
I2788
sI972
I2789
sI973
I2790
sI974
I2791
sI975
I2792
sI976
I2793
sI977
I2821
sI978
I2822
sI979
I2823
sI980
I2824
sI981
I2825
sI982
I2826
sI983
I2827
sI984
I2828
sI985
I2829
sI986
I2830
sI987
I2831
sI988
I2832
sI989
I2833
sI990
I2834
sI991
I2841
sI992
I2842
sI993
I2843
sI994
I2844
sI995
I2845
sI996
I2846
sI997
I2847
sI998
I2848
sI999
I2849
sI1000
I2850
sI1001
I2851
sI1002
I2852
sI1003
I2853
sI1004
I2854
sI1005
I2855
sI1006
I2856
sI1007
I2857
sI1008
I2858
sI1009
I2859
sI1010
I2860
sI1011
I2861
sI1012
I2862
sI1013
I2863
sI1014
I2864
sI1015
I2865
sI1016
I2866
sI1017
I2867
sI1018
I2868
sI1019
I2869
sI1020
I2881
sI1021
I2882
sI1022
I2883
sI1023
I2884
sI1024
I2885
sI1025
I2886
sI1026
I2887
sI1027
I2888
sI1028
I2889
sI1029
I2890
sI1030
I2891
sI1031
I2892
sI1032
I2893
sI1033
I2894
sI1034
I2895
sI1035
I2901
sI1036
I2903
sI1037
I2904
sI1038
I2914
sI1039
I2915
sI1040
I2917
sI1041
I2919
sI1042
I2920
sI1043
I2931
sI1044
I2932
sI1045
I2933
sI1046
I2936
sI1047
I2937
sI1048
I2938
sI1049
I2939
sI1050
I2951
sI1051
I2952
sI1052
I2953
sI1053
I2961
sI1054
I2962
sI1055
I2963
sI1056
I2964
sI1057
I2971
sI1058
I2972
sI1059
I2973
sI1060
I2974
sI1061
I3001
sI1062
I3002
sI1063
I3003
sI1064
I3004
sI1065
I3005
sI1066
I3006
sI1067
I3007
sI1068
I3021
sI1069
I3022
sI1070
I3023
sI1071
I3024
sI1072
I3025
sI1073
I3031
sI1074
I3032
sI1075
I3033
sI1076
I3034
sI1077
I3035
sI1078
I3036
sI1079
I3037
sI1080
I3038
sI1081
I3101
sI1082
I3102
sI1083
I3103
sI1084
I3104
sI1085
I3105
sI1086
I3111
sI1087
I3201
sI1088
I3202
sI1089
I3203
sI1090
I3204
sI1091
I3211
sI1092
I3212
sI1093
I3213
sI1094
I3214
sI1095
I3215
sI1096
I3216
sI1097
I3217
sI1098
I3218
sI1099
I3219
sI1100
I3231
sI1101
I3232
sI1102
I3233
sI1103
I3234
sI1104
I3235
sI1105
I3236
sI1106
I3237
sI1107
I3238
sI1108
I3251
sI1109
I3252
sI1110
I3253
sI1111
I3254
sI1112
I3255
sI1113
I3256
sI1114
I3271
sI1115
I3272
sI1116
I3273
sI1117
I3274
sI1118
I3275
sI1119
I3276
sI1120
I3291
sI1121
I3292
sI1122
I3293
sI1123
I3294
sI1124
I3295
sI1125
I3296
sI1126
I3297
sI1127
I3298
sI1128
I3311
sI1129
I3312
sI1130
I3313
sI1131
I3315
sI1132
I3316
sI1133
I3338
sI1134
I3339
sI1135
I3340
sI1136
I3341
sI1137
I3342
sI1138
I3352
sI1139
I3359
sI1140
I3360
sI1141
I3372
sI1142
I3374
sI1143
I3375
sI1144
I3378
sI1145
I3379
sI1146
I3392
sI1147
I3393
sI1148
I3394
sI1149
I3395
sI1150
I3401
sI1151
I3402
sI1152
I3405
sI1153
I3407
sI1154
I3408
sI1155
I3422
sI1156
I3423
sI1157
I3424
sI1158
I3426
sI1159
I3427
sI1160
I3441
sI1161
I3442
sI1162
I3443
sI1163
I3444
sI1164
I3503
sI1165
I3506
sI1166
I3513
sI1167
I3514
sI1168
I3521
sI1169
I3522
sI1170
I3542
sI1171
I3543
sI1172
I3551
sI1173
I3561
sI1174
I3572
sI1175
I3575
sI1176
I3581
sI1177
I3582
sI1178
I3603
sI1179
I3611
sI1180
I3616
sI1181
I3618
sI1182
I3619
sI1183
I3633
sI1184
I3637
sI1185
I3638
sI1186
I3640
sI1187
I3661
sI1188
I3662
sI1189
I3663
sI1190
I3668
sI1191
I3669
sI1192
I3670
sI1193
I3672
sI1194
I3673
sI1195
I3681
sI1196
I3691
sI1197
I3693
sI1198
I3694
sI1199
I3695
sI1200
I3701
sI1201
I3703
sI1202
I3705
sI1203
I3707
sI1204
I3708
sI1205
I3711
sI1206
I3712
sI1207
I3713
sI1208
I3721
sI1209
I3722
sI1210
I3723
sI1211
I3731
sI1212
I3732
sI1213
I3733
sI1214
I3734
sI1215
I3746
sI1216
I3752
sI1217
I3762
sI1218
I3764
sI1219
I3781
sI1220
I3782
sI1221
I3783
sI1222
I3784
sI1223
I3785
sI1224
I3786
sI1225
I3787
sI1226
I3788
sI1227
I3789
sI1228
I3790
sI1229
I3791
sI1230
I3792
sI1231
I3804
sI1232
I3805
sI1233
I3808
sI1234
I3810
sI1235
I3821
sI1236
I3822
sI1237
I3823
sI1238
I3831
sI1239
I3832
sI1240
I3833
sI1241
I3834
sI1242
I3835
sI1243
I3836
sI1244
I3837
sI1245
I3847
sI1246
I3851
sI1247
I3861
sI1248
I3862
sI1249
I3863
sI1250
I3871
sI1251
I3881
sI1252
I3882
sI1253
I3891
sI1254
I3901
sI1255
I3911
sI1256
I3921
sI1257
I3926
sI1258
I3932
sI1259
I3941
sI1260
I3945
sI1261
I3946
sI1262
I3947
sI1263
I3951
sI1264
I3952
sI1265
I3953
sI1266
I3954
sI1267
I3955
sI1268
I3961
sI1269
I3962
sI1270
I3972
sI1271
I3981
sI1272
I3982
sI1273
I3983
sI1274
I3985
sI1275
I3986
sI1276
I3987
sI1277
I3988
sI1278
I4001
sI1279
I4002
sI1280
I4003
sI1281
I4004
sI1282
I4005
sI1283
I4006
sI1284
I4007
sI1285
I4008
sI1286
I4009
sI1287
I4010
sI1288
I4012
sI1289
I4013
sI1290
I4021
sI1291
I4022
sI1292
I4023
sI1293
I4024
sI1294
I4026
sI1295
I4027
sI1296
I4028
sI1297
I4029
sI1298
I4030
sI1299
I4031
sI1300
I4032
sI1301
I4033
sI1302
I4034
sI1303
I4035
sI1304
I4037
sI1305
I4038
sI1306
I4039
sI1307
I4040
sI1308
I4041
sI1309
I4042
sI1310
I4044
sI1311
I4045
sI1312
I4046
sI1313
I4047
sI1314
I4048
sI1315
I4049
sI1316
I4061
sI1317
I4062
sI1318
I4063
sI1319
I4064
sI1320
I4065
sI1321
I4066
sI1322
I4067
sI1323
I4068
sI1324
I4071
sI1325
I4072
sI1326
I4073
sI1327
I4074
sI1328
I4075
sI1329
I4076
sI1330
I4077
sI1331
I4078
sI1332
I4079
sI1333
I4080
sI1334
I4081
sI1335
I4082
sI1336
I4083
sI1337
I4084
sI1338
I4091
sI1339
I4092
sI1340
I4093
sI1341
I4094
sI1342
I4095
sI1343
I4096
sI1344
I4097
sI1345
I4099
sI1346
I4100
sI1347
I4104
sI1348
I4105
sI1349
I4106
sI1350
I4107
sI1351
I4110
sI1352
I4111
sI1353
I4112
sI1354
I4113
sI1355
I4114
sI1356
I4117
sI1357
I4120
sI1358
I4121
sI1359
I4122
sI1360
I4123
sI1361
I4124
sI1362
I4125
sI1363
I4131
sI1364
I4132
sI1365
I4133
sI1366
I4134
sI1367
I4135
sI1368
I4136
sI1369
I4137
sI1370
I4138
sI1371
I4139
sI1372
I4140
sI1373
I4141
sI1374
I4142
sI1375
I4143
sI1376
I4144
sI1377
I4145
sI1378
I4146
sI1379
I4147
sI1380
I4161
sI1381
I4163
sI1382
I4164
sI1383
I4165
sI1384
I4166
sI1385
I4167
sI1386
I4169
sI1387
I4170
sI1388
I4172
sI1389
I4173
sI1390
I4175
sI1391
I4176
sI1392
I4177
sI1393
I4179
sI1394
I4181
sI1395
I4182
sI1396
I4183
sI1397
I4184
sI1398
I4191
sI1399
I4192
sI1400
I4193
sI1401
I4194
sI1402
I4195
sI1403
I4196
sI1404
I4197
sI1405
I4198
sI1406
I4199
sI1407
I4200
sI1408
I4201
sI1409
I4202
sI1410
I4203
sI1411
I4204
sI1412
I4205
sI1413
I4206
sI1414
I4207
sI1415
I4208
sI1416
I4209
sI1417
I4210
sI1418
I4221
sI1419
I4222
sI1420
I4223
sI1421
I4224
sI1422
I4226
sI1423
I4227
sI1424
I4228
sI1425
I4229
sI1426
I4230
sI1427
I4231
sI1428
I4232
sI1429
I4233
sI1430
I4234
sI1431
I4235
sI1432
I4236
sI1433
I4237
sI1434
I4238
sI1435
I4239
sI1436
I4240
sI1437
I4251
sI1438
I4252
sI1439
I4253
sI1440
I4254
sI1441
I4255
sI1442
I4256
sI1443
I4257
sI1444
I4258
sI1445
I4259
sI1446
I4260
sI1447
I4261
sI1448
I4262
sI1449
I4263
sI1450
I4264
sI1451
I4271
sI1452
I4272
sI1453
I4273
sI1454
I4274
sI1455
I4275
sI1456
I4276
sI1457
I4277
sI1458
I4279
sI1459
I4280
sI1460
I4281
sI1461
I4282
sI1462
I4283
sI1463
I4284
sI1464
I4285
sI1465
I4286
sI1466
I4287
sI1467
I4288
sI1468
I4289
sI1469
I4301
sI1470
I4302
sI1471
I4303
sI1472
I4304
sI1473
I4305
sI1474
I4306
sI1475
I4307
sI1476
I4308
sI1477
I4309
sI1478
I4310
sI1479
I4311
sI1480
I4312
sI1481
I4313
sI1482
I4314
sI1483
I4315
sI1484
I4316
sI1485
I4317
sI1486
I4318
sI1487
I4319
sI1488
I4320
sI1489
I4322
sI1490
I4323
sI1491
I4401
sI1492
I4406
sI1493
I4411
sI1494
I4416
sI1495
I4421
sI1496
I4426
sI1497
I4431
sI1498
I4436
sI1499
I4441
sI1500
I4446
sI1501
I4451
sI1502
I4461
sI1503
I4471
sI1504
I4476
sI1505
I4486
sI1506
I4495
sI1507
I4501
sI1508
I4506
sI1509
I4511
sI1510
I4536
sI1511
I4545
sI1512
I4546
sI1513
I4551
sI1514
I4561
sI1515
I4566
sI1516
I4571
sI1517
I4590
sI1518
I4591
sI1519
I4601
sI1520
I4606
sI1521
I4611
sI1522
I4616
sI1523
I4621
sI1524
I4641
sI1525
I4643
sI1526
I4646
sI1527
I4651
sI1528
I4656
sI1529
I4666
sI1530
I4671
sI1531
I4681
sI1532
I4683
sI1533
I4691
sI1534
I4696
sI1535
I4701
sI1536
I4711
sI1537
I4716
sI1538
I4721
sI1539
I4723
sI1540
I4724
sI1541
I4726
sI1542
I4741
sI1543
I4746
sI1544
I4751
sI1545
I4756
sI1546
I4761
sI1547
I4776
sI1548
I4781
sI1549
I4786
sI1550
I4791
sI1551
I4801
sI1552
I4806
sI1553
I4811
sI1554
I4816
sI1555
I4821
sI1556
I4826
sI1557
I4831
sI1558
I4841
sI1559
I4846
sI1560
I4851
sI1561
I4864
sI1562
I4871
sI1563
I4881
sI1564
I4891
sI1565
I4901
sI1566
I4911
sI1567
I4921
sI1568
I4941
sI1569
I4946
sI1570
I4951
sI1571
I5001
sI1572
I5002
sI1573
I5003
sI1574
I5004
sI1575
I5005
sI1576
I5006
sI1577
I5007
sI1578
I5008
sI1579
I5009
sI1580
I5010
sI1581
I5012
sI1582
I5013
sI1583
I5014
sI1584
I5015
sI1585
I5017
sI1586
I5018
sI1587
I5019
sI1588
I5048
sI1589
I5049
sI1590
I5050
sI1591
I5061
sI1592
I5063
sI1593
I5064
sI1594
I5071
sI1595
I5072
sI1596
I5073
sI1597
I5076
sI1598
I5077
sI1599
I5078
sI1600
I5079
sI1601
I5091
sI1602
I5095
sI1603
I5096
sI1604
I5097
sI1605
I5102
sI1606
I5105
sI1607
I5108
sI1608
I5112
sI1609
I5113
sI1610
I5115
sI1611
I5117
sI1612
I5118
sI1613
I5120
sI1614
I5121
sI1615
I5125
sI1616
I5129
sI1617
I5131
sI1618
I5135
sI1619
I5136
sI1620
I5138
sI1621
I5141
sI1622
I5143
sI1623
I5144
sI1624
I5146
sI1625
I5148
sI1626
I5149
sI1627
I5151
sI1628
I5154
sI1629
I5160
sI1630
I5161
sI1631
I5162
sI1632
I5167
sI1633
I5171
sI1634
I5176
sI1635
I5178
sI1636
I5180
sI1637
I5181
sI1638
I5186
sI1639
I5187
sI1640
I5189
sI1641
I5192
sI1642
I5193
sI1643
I5194
sI1644
I5195
sI1645
I5196
sI1646
I5197
sI1647
I5198
sI1648
I5199
sI1649
I5200
sI1650
I5202
sI1651
I5203
sI1652
I5205
sI1653
I5206
sI1654
I5207
sI1655
I5208
sI1656
I5210
sI1657
I5212
sI1658
I5213
sI1659
I5214
sI1660
I5216
sI1661
I5219
sI1662
I5221
sI1663
I5222
sI1664
I5225
sI1665
I5226
sI1666
I5227
sI1667
I5230
sI1668
I5231
sI1669
I5233
sI1670
I5236
sI1671
I5237
sI1672
I5238
sI1673
I5242
sI1674
I5249
sI1675
I5250
sI1676
I5251
sI1677
I5254
sI1678
I5257
sI1679
I5260
sI1680
I5263
sI1681
I5266
sI1682
I5268
sI1683
I5269
sI1684
I5281
sI1685
I5282
sI1686
I5283
sI1687
I5284
sI1688
I5285
sI1689
I5286
sI1690
I5304
sI1691
I5307
sI1692
I5309
sI1693
I5310
sI1694
I5315
sI1695
I5317
sI1696
I5323
sI1697
I5324
sI1698
I5396
sI1699
I5397
sI1700
I5398
sI1701
I5401
sI1702
I5402
sI1703
I5403
sI1704
I5404
sI1705
I5405
sI1706
I5406
sI1707
I5407
sI1708
I5408
sI1709
I5409
sI1710
I5410
sI1711
I5411
sI1712
I5412
sI1713
I5413
sI1714
I5414
sI1715
I5415
sI1716
I5421
sI1717
I5422
sI1718
I5423
sI1719
I5424
sI1720
I5425
sI1721
I5426
sI1722
I5427
sI1723
I5428
sI1724
I5429
sI1725
I5430
sI1726
I5431
sI1727
I5432
sI1728
I5434
sI1729
I5435
sI1730
I5436
sI1731
I5437
sI1732
I5451
sI1733
I5456
sI1734
I5458
sI1735
I5464
sI1736
I5471
sI1737
I5472
sI1738
I5473
sI1739
I5474
sI1740
I5475
sI1741
I5476
sI1742
I5477
sI1743
I5478
sI1744
I5479
sI1745
I5480
sI1746
I5481
sI1747
I5482
sI1748
I5483
sI1749
I5484
sI1750
I5485
sI1751
I5486
sI1752
I5487
sI1753
I5488
sI1754
I5489
sI1755
I5490
sI1756
I5491
sI1757
I5492
sI1758
I5493
sI1759
I5494
sI1760
I5495
sI1761
I5496
sI1762
I5497
sI1763
I5498
sI1764
I5499
sI1765
I5500
sI1766
I5501
sI1767
I5503
sI1768
I5511
sI1769
I5512
sI1770
I5513
sI1771
I5514
sI1772
I5515
sI1773
I5516
sI1774
I5518
sI1775
I5520
sI1776
I5521
sI1777
I5522
sI1778
I5523
sI1779
I5527
sI1780
I5529
sI1781
I5530
sI1782
I5531
sI1783
I5533
sI1784
I5534
sI1785
I5535
sI1786
I5537
sI1787
I5539
sI1788
I5540
sI1789
I5541
sI1790
I5551
sI1791
I5552
sI1792
I5553
sI1793
I5554
sI1794
I5555
sI1795
I5556
sI1796
I5557
sI1797
I5559
sI1798
I5560
sI1799
I5561
sI1800
I5562
sI1801
I5563
sI1802
I5564
sI1803
I5565
sI1804
I5566
sI1805
I5568
sI1806
I5571
sI1807
I5581
sI1808
I5582
sI1809
I5583
sI1810
I5584
sI1811
I5585
sI1812
I5586
sI1813
I5587
sI1814
I5588
sI1815
I5589
sI1816
I5590
sI1817
I5591
sI1818
I5592
sI1819
I5601
sI1820
I5604
sI1821
I5606
sI1822
I5607
sI1823
I5609
sI1824
I5610
sI1825
I5611
sI1826
I5613
sI1827
I5621
sI1828
I5622
sI1829
I5623
sI1830
I5624
sI1831
I5625
sI1832
I5627
sI1833
I5628
sI1834
I5629
sI1835
I5631
sI1836
I5632
sI1837
I5633
sI1838
I5634
sI1839
I5635
sI1840
I5636
sI1841
I5637
sI1842
I5638
sI1843
I5639
sI1844
I5640
sI1845
I5642
sI1846
I5643
sI1847
I5644
sI1848
I5645
sI1849
I5646
sI1850
I5648
sI1851
I5649
sI1852
I5650
sI1853
I5651
sI1854
I5652
sI1855
I5653
sI1856
I5654
sI1857
I5655
sI1858
I5661
sI1859
I5662
sI1860
I5663
sI1861
I5665
sI1862
I5666
sI1863
I5668
sI1864
I5669
sI1865
I5671
sI1866
I5672
sI1867
I5673
sI1868
I5674
sI1869
I5675
sI1870
I5678
sI1871
I5680
sI1872
I5683
sI1873
I5684
sI1874
I5686
sI1875
I5688
sI1876
I5690
sI1877
I5692
sI1878
I5693
sI1879
I5701
sI1880
I5702
sI1881
I5703
sI1882
I5704
sI1883
I5705
sI1884
I5706
sI1885
I5707
sI1886
I5708
sI1887
I5709
sI1888
I5710
sI1889
I5711
sI1890
I5712
sI1891
I5713
sI1892
I5714
sI1893
I5715
sI1894
I5716
sI1895
I5717
sI1896
I5718
sI1897
I5719
sI1898
I5720
sI1899
I5721
sI1900
I5722
sI1901
I5723
sI1902
I5724
sI1903
I5725
sI1904
I5726
sI1905
I5727
sI1906
I5728
sI1907
I5729
sI1908
I5730
sI1909
I5731
sI1910
I5732
sI1911
I5741
sI1912
I5742
sI1913
I5743
sI1914
I5744
sI1915
I5745
sI1916
I5746
sI1917
I5747
sI1918
I5748
sI1919
I5749
sI1920
I5750
sI1921
I5751
sI1922
I5752
sI1923
I5754
sI1924
I5755
sI1925
I5756
sI1926
I5757
sI1927
I5758
sI1928
I5759
sI1929
I5760
sI1930
I5761
sI1931
I5762
sI1932
I5763
sI1933
I5764
sI1934
I5765
sI1935
I5766
sI1936
I5785
sI1937
I5788
sI1938
I5790
sI1939
I5792
sI1940
I5798
sI1941
I5799
sI1942
I5803
sI1943
I5804
sI1944
I5805
sI1945
I5806
sI1946
I5812
sI1947
I5813
sI1948
I5816
sI1949
I5817
sI1950
I5819
sI1951
I5821
sI1952
I5822
sI1953
I5827
sI1954
I5828
sI1955
I5830
sI1956
I5831
sI1957
I5841
sI1958
I5842
sI1959
I5843
sI1960
I5851
sI1961
I5852
sI1962
I5853
sI1963
I5854
sI1964
I5855
sI1965
I5856
sI1966
I5857
sI1967
I5858
sI1968
I5859
sI1969
I5860
sI1970
I5861
sI1971
I5862
sI1972
I5863
sI1973
I5871
sI1974
I5872
sI1975
I5873
sI1976
I5881
sI1977
I5882
sI1978
I5883
sI1979
I5884
sI1980
I5885
sI1981
I5886
sI1982
I5888
sI1983
I5889
sI1984
I5890
sI1985
I5891
sI1986
I5902
sI1987
I5903
sI1988
I5904
sI1989
I5905
sI1990
I5907
sI1991
I5908
sI1992
I5909
sI1993
I5910
sI1994
I5911
sI1995
I5912
sI1996
I5913
sI1997
I5914
sI1998
I5915
sI1999
I5919
sI2000
I5921
sI2001
I5922
sI2002
I5923
sI2003
I5924
sI2004
I5925
sI2005
I5926
sI2006
I5928
sI2007
I5929
sI2008
I5930
sI2009
I5931
sI2010
I5932
sI2011
I5933
sI2012
I5934
sI2013
I5935
sI2014
I5937
sI2015
I5938
sI2016
I5939
sI2017
I6002
sI2018
I6004
sI2019
I6007
sI2020
I6008
sI2021
I6009
sI2022
I6010
sI2023
I6011
sI2024
I6021
sI2025
I6022
sI2026
I6023
sI2027
I6024
sI2028
I6025
sI2029
I6031
sI2030
I6032
sI2031
I6033
sI2032
I6034
sI2033
I6035
sI2034
I6036
sI2035
I6052
sI2036
I6054
sI2037
I6055
sI2038
I6056
sI2039
I6057
sI2040
I6058
sI2041
I6061
sI2042
I6064
sI2043
I6073
sI2044
I6074
sI2045
I6075
sI2046
I6076
sI2047
I6081
sI2048
I6082
sI2049
I6083
sI2050
I6084
sI2051
I6087
sI2052
I6089
sI2053
I6090
sI2054
I6101
sI2055
I6102
sI2056
I6104
sI2057
I6109
sI2058
I6110
sI2059
I6111
sI2060
I6112
sI2061
I6113
sI2062
I6116
sI2063
I6117
sI2064
I6118
sI2065
I6119
sI2066
I6131
sI2067
I6132
sI2068
I6133
sI2069
I6134
sI2070
I6135
sI2071
I6136
sI2072
I6137
sI2073
I6139
sI2074
I6140
sI2075
I6141
sI2076
I6142
sI2077
I6151
sI2078
I6152
sI2079
I6153
sI2080
I6154
sI2081
I6155
sI2082
I6156
sI2083
I6157
sI2084
I6158
sI2085
I6159
sI2086
I6172
sI2087
I6173
sI2088
I6177
sI2089
I6181
sI2090
I6191
sI2091
I6192
sI2092
I6193
sI2093
I6194
sI2094
I6195
sI2095
I6197
sI2096
I6198
sI2097
I6199
sI2098
I6201
sI2099
I6202
sI2100
I6203
sI2101
I6204
sI2102
I6205
sI2103
I6211
sI2104
I6212
sI2105
I6213
sI2106
I6214
sI2107
I6215
sI2108
I6217
sI2109
I6218
sI2110
I6219
sI2111
I6220
sI2112
I6232
sI2113
I6234
sI2114
I6235
sI2115
I6238
sI2116
I6239
sI2117
I6240
sI2118
I6241
sI2119
I6242
sI2120
I6243
sI2121
I6244
sI2122
I6246
sI2123
I6248
sI2124
I6249
sI2125
I6250
sI2126
I6252
sI2127
I6261
sI2128
I6263
sI2129
I6265
sI2130
I6266
sI2131
I6267
sI2132
I6281
sI2133
I6282
sI2134
I6283
sI2135
I6285
sI2136
I6286
sI2137
I6287
sI2138
I6288
sI2139
I6289
sI2140
I6290
sI2141
I6291
sI2142
I6292
sI2143
I6293
sI2144
I6294
sI2145
I6295
sI2146
I6296
sI2147
I6297
sI2148
I6298
sI2149
I6299
sI2150
I6300
sI2151
I6402
sI2152
I6404
sI2153
I6407
sI2154
I6408
sI2155
I6409
sI2156
I6410
sI2157
I6411
sI2158
I6412
sI2159
I6413
sI2160
I6414
sI2161
I6415
sI2162
I6416
sI2163
I6421
sI2164
I6422
sI2165
I6423
sI2166
I6431
sI2167
I6432
sI2168
I6433
sI2169
I6434
sI2170
I6435
sI2171
I6436
sI2172
I6437
sI2173
I6451
sI2174
I6452
sI2175
I6453
sI2176
I6454
sI2177
I6455
sI2178
I6456
sI2179
I6458
sI2180
I6459
sI2181
I6461
sI2182
I6485
sI2183
I6487
sI2184
I6504
sI2185
I6511
sI2186
I6512
sI2187
I6601
sI2188
I6602
sI2189
I6603
sI2190
I6604
sI2191
I6605
sI2192
I6606
sI2193
I6607
sI2194
I6608
sI2195
I6609
sI2196
I6610
sI2197
I6611
sI2198
I6612
sI2199
I6613
sI2200
I6614
sI2201
I6615
sI2202
I6616
sI2203
I6617
sI2204
I6618
sI2205
I6619
sI2206
I6620
sI2207
I6621
sI2208
I6622
sI2209
I6623
sI2210
I6624
sI2211
I6625
sI2212
I6626
sI2213
I6627
sI2214
I6628
sI2215
I6629
sI2216
I6630
sI2217
I6631
sI2218
I6632
sI2219
I6633
sI2220
I6634
sI2221
I6635
sI2222
I6636
sI2223
I6637
sI2224
I6638
sI2225
I6639
sI2226
I6640
sI2227
I6641
sI2228
I6642
sI2229
I6643
sI2230
I6644
sI2231
I6645
sI2232
I6702
sI2233
I6703
sI2234
I6704
sI2235
I6705
sI2236
I6706
sI2237
I6708
sI2238
I6709
sI2239
I6710
sI2240
I6711
sI2241
I6712
sI2242
I6713
sI2243
I6715
sI2244
I6716
sI2245
I6718
sI2246
I6719
sI2247
I6720
sI2248
I6721
sI2249
I6722
sI2250
I6724
sI2251
I6728
sI2252
I6729
sI2253
I6730
sI2254
I6741
sI2255
I6742
sI2256
I6743
sI2257
I6744
sI2258
I6745
sI2259
I6748
sI2260
I6750
sI2261
I6751
sI2262
I6753
sI2263
I6754
sI2264
I6757
sI2265
I6758
sI2266
I6759
sI2267
I6771
sI2268
I6773
sI2269
I6774
sI2270
I6775
sI2271
I6778
sI2272
I6781
sI2273
I6782
sI2274
I6783
sI2275
I6784
sI2276
I6785
sI2277
I6787
sI2278
I6789
sI2279
I6790
sI2280
I6792
sI2281
I6793
sI2282
I6800
sI2283
I6803
sI2284
I6806
sI2285
I6807
sI2286
I6808
sI2287
I6809
sI2288
I6810
s.